target datalayout = "e-m:e-p270:32:32-p271:32:32-p272:64:64-i64:64-i128:128-f80:128-n8:16:32:64-S128"
target triple = "x86_64-pc-linux-gnu"

%struct.cgroup_conf_t = type { ptr, ptr, i8, i8, float, float, i64, i8, float, float, i64, i8, ptr, i8, i8, i8, i8, i64 }

@plugin_type = dso_local constant [17 x i8] c"proctrack/cgroup\00", align 16
@.str.6 = private unnamed_addr constant [48 x i8] c"%s: %s: unable to get pids list for cont_id=%lu\00", align 1
@__func__.proctrack_p_signal = private unnamed_addr constant [19 x i8] c"proctrack_p_signal\00", align 1
@slurm_cgroup_conf = external global %struct.cgroup_conf_t, align 8
@.str.7 = private unnamed_addr constant [42 x i8] c"%s: %s: sending process %d (%s) signal %d\00", align 1
@.str.8 = private unnamed_addr constant [11 x i8] c"slurm_task\00", align 1
@.str.9 = private unnamed_addr constant [15 x i8] c"inherited_task\00", align 1

; Function Attrs: nounwind uwtable
define dso_local i32 @proctrack_p_signal(i64 noundef %0, i32 noundef %1) #0 {
  %3 = alloca i32, align 4
  %4 = alloca i64, align 8
  %5 = alloca i32, align 4
  %6 = alloca ptr, align 8
  %7 = alloca i32, align 4
  %8 = alloca i32, align 4
  %9 = alloca i32, align 4
  %10 = alloca i32, align 4
  store i64 %0, ptr %4, align 8
  store i32 %1, ptr %5, align 4
  call void @llvm.lifetime.start.p0(i64 8, ptr %6) #5
  store ptr null, ptr %6, align 8
  call void @llvm.lifetime.start.p0(i64 4, ptr %7) #5
  store i32 0, ptr %7, align 4
  call void @llvm.lifetime.start.p0(i64 4, ptr %8) #5
  call void @llvm.lifetime.start.p0(i64 4, ptr %9) #5
  %11 = load i32, ptr %5, align 4
  %12 = icmp eq i32 %11, 9
  br i1 %12, label %13, label %18

13:                                               ; preds = %2
  %14 = call zeroext i1 @cgroup_g_has_feature(i32 noundef 4)
  br i1 %14, label %15, label %18

15:                                               ; preds = %13
  %16 = load i32, ptr %5, align 4
  %17 = call i32 @cgroup_g_signal(i32 noundef %16)
  store i32 %17, ptr %3, align 4
  store i32 1, ptr %10, align 4
  br label %111

18:                                               ; preds = %13, %2
  %19 = call i32 @cgroup_g_step_get_pids(ptr noundef %6, ptr noundef %7)
  %20 = icmp ne i32 %19, 0
  br i1 %20, label %21, label %33

21:                                               ; preds = %18
  br label %22

22:                                               ; preds = %21
  br label %23

23:                                               ; preds = %22
  %24 = call i32 @get_log_level()
  %25 = icmp sge i32 %24, 7
  br i1 %25, label %26, label %28

26:                                               ; preds = %23
  %27 = load i64, ptr %4, align 8
  call void (i32, ptr, ...) @log_var(i32 noundef 7, ptr noundef @.str.6, ptr noundef @plugin_type, ptr noundef @__func__.proctrack_p_signal, i64 noundef %27)
  br label %28

28:                                               ; preds = %26, %23
  br label %29

29:                                               ; preds = %28
  br label %30

30:                                               ; preds = %29
  br label %31

31:                                               ; preds = %30
  br label %32

32:                                               ; preds = %31
  store i32 0, ptr %3, align 4
  store i32 1, ptr %10, align 4
  br label %111

33:                                               ; preds = %18
  %34 = load i32, ptr %5, align 4
  %35 = icmp eq i32 %34, 19
  br i1 %35, label %36, label %38

36:                                               ; preds = %33
  call void @slurm_xfree(ptr noundef %6)
  %37 = call i32 @cgroup_g_step_suspend()
  store i32 %37, ptr %3, align 4
  store i32 1, ptr %10, align 4
  br label %111

38:                                               ; preds = %33
  %39 = load i32, ptr %5, align 4
  %40 = icmp eq i32 %39, 9
  br i1 %40, label %41, label %43

41:                                               ; preds = %38
  %42 = call i32 @cgroup_g_step_resume()
  br label %43

43:                                               ; preds = %41, %38
  store i32 0, ptr %8, align 4
  br label %44

44:                                               ; preds = %102, %43
  %45 = load i32, ptr %8, align 4
  %46 = load i32, ptr %7, align 4
  %47 = icmp slt i32 %45, %46
  br i1 %47, label %48, label %105

48:                                               ; preds = %44
  %49 = load ptr, ptr %6, align 8
  %50 = load i32, ptr %8, align 4
  %51 = sext i32 %50 to i64
  %52 = getelementptr inbounds i32, ptr %49, i64 %51
  %53 = load i32, ptr %52, align 4
  %54 = load i64, ptr %4, align 8
  %55 = trunc i64 %54 to i32
  %56 = icmp eq i32 %53, %55
  br i1 %56, label %57, label %58

57:                                               ; preds = %48
  br label %102

58:                                               ; preds = %48
  %59 = load i64, ptr %4, align 8
  %60 = load ptr, ptr %6, align 8
  %61 = load i32, ptr %8, align 4
  %62 = sext i32 %61 to i64
  %63 = getelementptr inbounds i32, ptr %60, i64 %62
  %64 = load i32, ptr %63, align 4
  %65 = call i32 @_slurm_cgroup_is_pid_a_slurm_task(i64 noundef %59, i32 noundef %64)
  store i32 %65, ptr %9, align 4
  %66 = load i8, ptr getelementptr inbounds nuw (%struct.cgroup_conf_t, ptr @slurm_cgroup_conf, i32 0, i32 16), align 1, !range !8, !noundef !9
  %67 = trunc i8 %66 to i1
  br i1 %67, label %74, label %68

68:                                               ; preds = %58
  %69 = load i32, ptr %9, align 4
  %70 = icmp eq i32 %69, 1
  br i1 %70, label %74, label %71

71:                                               ; preds = %68
  %72 = load i32, ptr %5, align 4
  %73 = icmp eq i32 %72, 9
  br i1 %73, label %74, label %101

74:                                               ; preds = %71, %68, %58
  br label %75

75:                                               ; preds = %74
  br label %76

76:                                               ; preds = %75
  %77 = call i32 @get_log_level()
  %78 = icmp sge i32 %77, 6
  br i1 %78, label %79, label %89

79:                                               ; preds = %76
  %80 = load ptr, ptr %6, align 8
  %81 = load i32, ptr %8, align 4
  %82 = sext i32 %81 to i64
  %83 = getelementptr inbounds i32, ptr %80, i64 %82
  %84 = load i32, ptr %83, align 4
  %85 = load i32, ptr %9, align 4
  %86 = icmp eq i32 %85, 1
  %87 = select i1 %86, ptr @.str.8, ptr @.str.9
  %88 = load i32, ptr %5, align 4
  call void (i32, ptr, ...) @log_var(i32 noundef 6, ptr noundef @.str.7, ptr noundef @plugin_type, ptr noundef @__func__.proctrack_p_signal, i32 noundef %84, ptr noundef %87, i32 noundef %88)
  br label %89

89:                                               ; preds = %79, %76
  br label %90

90:                                               ; preds = %89
  br label %91

91:                                               ; preds = %90
  br label %92

92:                                               ; preds = %91
  br label %93

93:                                               ; preds = %92
  %94 = load ptr, ptr %6, align 8
  %95 = load i32, ptr %8, align 4
  %96 = sext i32 %95 to i64
  %97 = getelementptr inbounds i32, ptr %94, i64 %96
  %98 = load i32, ptr %97, align 4
  %99 = load i32, ptr %5, align 4
  %100 = call i32 @kill(i32 noundef %98, i32 noundef %99) #5
  br label %101

101:                                              ; preds = %93, %71
  br label %102

102:                                              ; preds = %101, %57
  %103 = load i32, ptr %8, align 4
  %104 = add nsw i32 %103, 1
  store i32 %104, ptr %8, align 4
  br label %44, !llvm.loop !10

105:                                              ; preds = %44
  call void @slurm_xfree(ptr noundef %6)
  %106 = load i32, ptr %5, align 4
  %107 = icmp eq i32 %106, 18
  br i1 %107, label %108, label %110

108:                                              ; preds = %105
  %109 = call i32 @cgroup_g_step_resume()
  store i32 %109, ptr %3, align 4
  store i32 1, ptr %10, align 4
  br label %111

110:                                              ; preds = %105
  store i32 0, ptr %3, align 4
  store i32 1, ptr %10, align 4
  br label %111

111:                                              ; preds = %110, %108, %36, %32, %15
  call void @llvm.lifetime.end.p0(i64 4, ptr %9) #5
  call void @llvm.lifetime.end.p0(i64 4, ptr %8) #5
  call void @llvm.lifetime.end.p0(i64 4, ptr %7) #5
  call void @llvm.lifetime.end.p0(i64 8, ptr %6) #5
  %112 = load i32, ptr %3, align 4
  ret i32 %112
}