; Function Attrs: nounwind uwtable
define dso_local i32 @proctrack_p_signal(i64 noundef %0, i32 noundef %1) local_unnamed_addr #0 {
  %3 = alloca ptr, align 8
  %4 = alloca i32, align 4
  call void @llvm.lifetime.start.p0(i64 8, ptr nonnull %3) #8
  store ptr null, ptr %3, align 8
  call void @llvm.lifetime.start.p0(i64 4, ptr nonnull %4) #8
  store i32 0, ptr %4, align 4
  %5 = icmp eq i32 %1, 9
  br i1 %5, label %6, label %10

6:                                                ; preds = %2
  %7 = tail call zeroext i1 @cgroup_g_has_feature(i32 noundef 4) #8
  br i1 %7, label %8, label %.thread

8:                                                ; preds = %6
  %9 = tail call i32 @cgroup_g_signal(i32 noundef 9) #8
  br label %82

10:                                               ; preds = %2
  %11 = call i32 @cgroup_g_step_get_pids(ptr noundef nonnull %3, ptr noundef nonnull %4) #8
  %.not = icmp eq i32 %11, 0
  br i1 %.not, label %17, label %13

.thread:                                          ; preds = %6
  %12 = call i32 @cgroup_g_step_get_pids(ptr noundef nonnull %3, ptr noundef nonnull %4) #8
  %.not26 = icmp eq i32 %12, 0
  br i1 %.not26, label %21, label %13

13:                                               ; preds = %.thread, %10
  %14 = call i32 @get_log_level() #8
  %15 = icmp sgt i32 %14, 6
  br i1 %15, label %16, label %82

16:                                               ; preds = %13
  call void (i32, ptr, ...) @log_var(i32 noundef 7, ptr noundef nonnull @.str.6, ptr noundef nonnull @plugin_type, ptr noundef nonnull @__func__.proctrack_p_signal, i64 noundef %0) #8
  br label %82

17:                                               ; preds = %10
  %18 = icmp eq i32 %1, 19
  br i1 %18, label %19, label %.thread35

19:                                               ; preds = %17
  call void @slurm_xfree(ptr noundef nonnull %3) #8
  %20 = call i32 @cgroup_g_step_suspend() #8
  br label %82

21:                                               ; preds = %.thread
  %22 = call i32 @cgroup_g_step_resume() #8
  %23 = load i32, ptr %4, align 4
  %24 = icmp sgt i32 %23, 0
  br i1 %24, label %.lr.ph.split.us.preheader, label %._crit_edge.thread

._crit_edge.thread:                               ; preds = %21
  call void @slurm_xfree(ptr noundef nonnull %3) #8
  br label %82

.thread35:                                        ; preds = %17
  %25 = load i32, ptr %4, align 4
  %26 = icmp sgt i32 %25, 0
  br i1 %26, label %.lr.ph.split.preheader, label %._crit_edge

.lr.ph.split.preheader:                           ; preds = %.thread35
  %27 = trunc i64 %0 to i32
  br label %.lr.ph.split

.lr.ph.split.us.preheader:                        ; preds = %21
  %28 = trunc i64 %0 to i32
  br label %.lr.ph.split.us

.lr.ph.split.us:                                  ; preds = %.lr.ph.split.us.preheader, %49
  %29 = phi i32 [ %23, %.lr.ph.split.us.preheader ], [ %50, %49 ]
  %indvars.iv32 = phi i64 [ 0, %.lr.ph.split.us.preheader ], [ %indvars.iv.next33, %49 ]
  %30 = load ptr, ptr %3, align 8
  %31 = getelementptr inbounds nuw i32, ptr %30, i64 %indvars.iv32
  %32 = load i32, ptr %31, align 4
  %33 = icmp eq i32 %32, %28
  br i1 %33, label %49, label %34

34:                                               ; preds = %.lr.ph.split.us
  %35 = call i32 @_slurm_cgroup_is_pid_a_slurm_task(i64 noundef %0, i32 noundef %32)
  %36 = call i32 @get_log_level() #8
  %37 = icmp sgt i32 %36, 5
  br i1 %37, label %38, label %44

38:                                               ; preds = %34
  %39 = icmp eq i32 %35, 1
  %40 = load ptr, ptr %3, align 8
  %41 = getelementptr inbounds nuw i32, ptr %40, i64 %indvars.iv32
  %42 = load i32, ptr %41, align 4
  %43 = select i1 %39, ptr @.str.8, ptr @.str.9
  call void (i32, ptr, ...) @log_var(i32 noundef 6, ptr noundef nonnull @.str.7, ptr noundef nonnull @plugin_type, ptr noundef nonnull @__func__.proctrack_p_signal, i32 noundef %42, ptr noundef nonnull %43, i32 noundef 9) #8
  br label %44

44:                                               ; preds = %38, %34
  %45 = load ptr, ptr %3, align 8
  %46 = getelementptr inbounds nuw i32, ptr %45, i64 %indvars.iv32
  %47 = load i32, ptr %46, align 4
  %48 = call i32 @kill(i32 noundef %47, i32 noundef 9) #8
  %.pre = load i32, ptr %4, align 4
  br label %49

49:                                               ; preds = %44, %.lr.ph.split.us
  %50 = phi i32 [ %.pre, %44 ], [ %29, %.lr.ph.split.us ]
  %indvars.iv.next33 = add nuw nsw i64 %indvars.iv32, 1
  %51 = sext i32 %50 to i64
  %52 = icmp slt i64 %indvars.iv.next33, %51
  br i1 %52, label %.lr.ph.split.us, label %._crit_edge, !llvm.loop !8

.lr.ph.split:                                     ; preds = %.lr.ph.split.preheader, %75
  %indvars.iv = phi i64 [ 0, %.lr.ph.split.preheader ], [ %indvars.iv.next, %75 ]
  %53 = load ptr, ptr %3, align 8
  %54 = getelementptr inbounds nuw i32, ptr %53, i64 %indvars.iv
  %55 = load i32, ptr %54, align 4
  %56 = icmp eq i32 %55, %27
  br i1 %56, label %75, label %57

57:                                               ; preds = %.lr.ph.split
  %58 = call i32 @_slurm_cgroup_is_pid_a_slurm_task(i64 noundef %0, i32 noundef %55)
  %59 = load i8, ptr getelementptr inbounds nuw (i8, ptr @slurm_cgroup_conf, i64 83), align 1, !range !11, !noundef !12
  %60 = trunc nuw i8 %59 to i1
  %61 = icmp eq i32 %58, 1
  %or.cond = select i1 %60, i1 true, i1 %61
  br i1 %or.cond, label %62, label %75

62:                                               ; preds = %57
  %63 = call i32 @get_log_level() #8
  %64 = icmp sgt i32 %63, 5
  br i1 %64, label %65, label %70

65:                                               ; preds = %62
  %66 = load ptr, ptr %3, align 8
  %67 = getelementptr inbounds nuw i32, ptr %66, i64 %indvars.iv
  %68 = load i32, ptr %67, align 4
  %69 = select i1 %61, ptr @.str.8, ptr @.str.9
  call void (i32, ptr, ...) @log_var(i32 noundef 6, ptr noundef nonnull @.str.7, ptr noundef nonnull @plugin_type, ptr noundef nonnull @__func__.proctrack_p_signal, i32 noundef %68, ptr noundef nonnull %69, i32 noundef %1) #8
  br label %70

70:                                               ; preds = %65, %62
  %71 = load ptr, ptr %3, align 8
  %72 = getelementptr inbounds nuw i32, ptr %71, i64 %indvars.iv
  %73 = load i32, ptr %72, align 4
  %74 = call i32 @kill(i32 noundef %73, i32 noundef %1) #8
  br label %75

75:                                               ; preds = %70, %57, %.lr.ph.split
  %indvars.iv.next = add nuw nsw i64 %indvars.iv, 1
  %76 = load i32, ptr %4, align 4
  %77 = sext i32 %76 to i64
  %78 = icmp slt i64 %indvars.iv.next, %77
  br i1 %78, label %.lr.ph.split, label %._crit_edge, !llvm.loop !8

._crit_edge:                                      ; preds = %75, %49, %.thread35
  call void @slurm_xfree(ptr noundef nonnull %3) #8
  %79 = icmp eq i32 %1, 18
  br i1 %79, label %80, label %82

80:                                               ; preds = %._crit_edge
  %81 = call i32 @cgroup_g_step_resume() #8
  br label %82

82:                                               ; preds = %._crit_edge.thread, %._crit_edge, %13, %16, %80, %19, %8
  %.0 = phi i32 [ %9, %8 ], [ %20, %19 ], [ %81, %80 ], [ 0, %16 ], [ 0, %13 ], [ 0, %._crit_edge ], [ 0, %._crit_edge.thread ]
  call void @llvm.lifetime.end.p0(i64 4, ptr nonnull %4) #8
  call void @llvm.lifetime.end.p0(i64 8, ptr nonnull %3) #8
  ret i32 %.0
}